target datalayout = "e-m:e-p270:32:32-p271:32:32-p272:64:64-i64:64-i128:128-f80:128-n8:16:32:64-S128"
target triple = "x86_64-pc-linux-gnu"

%struct.AVFilterContext = type { ptr, ptr, ptr, ptr, ptr, i32, ptr, ptr, i32, ptr, ptr, i32, i32, ptr, ptr, ptr, ptr, i32, ptr, i32, i32 }
%struct.HeadphoneContext = type { ptr, ptr, i32, i32, i32, i32, i32, i32, i32, i32, float, float, float, [2 x ptr], [2 x i32], i32, i32, i32, i32, [2 x ptr], [2 x ptr], [2 x ptr], [2 x ptr], [2 x ptr], [2 x ptr], [2 x ptr], [2 x ptr], [2 x ptr], [2 x ptr], ptr, [64 x %struct.hrir_inputs], %struct.AVChannelLayout, [64 x i32], [64 x i8] }
%struct.hrir_inputs = type { i32, i32 }
%struct.AVChannelLayout = type { i32, i32, %union.anon.1, ptr }
%union.anon.1 = type { i64 }
%struct.AVFilterFormatsConfig = type { ptr, ptr, ptr, ptr, ptr }
%struct.AVFilterLink = type { ptr, ptr, ptr, ptr, i32, i32, i32, i32, %struct.AVRational, i32, i32, i32, %struct.AVChannelLayout, %struct.AVRational, ptr, i32, %struct.AVFilterFormatsConfig, %struct.AVFilterFormatsConfig }
%struct.AVRational = type { i32, i32 }

@.str.3 = private unnamed_addr constant [50 x i8] c"Number of channels in HRIR stream must be >= %d.\0A\00", align 1

; Function Attrs: nounwind uwtable
define internal i32 @config_output(ptr noundef %0) #1 {
  %2 = alloca i32, align 4
  %3 = alloca ptr, align 8
  %4 = alloca ptr, align 8
  %5 = alloca ptr, align 8
  %6 = alloca ptr, align 8
  %7 = alloca ptr, align 8
  %8 = alloca i32, align 4
  store ptr %0, ptr %3, align 8, !tbaa !55
  call void @llvm.lifetime.start.p0(i64 8, ptr %4) #9
  %9 = load ptr, ptr %3, align 8, !tbaa !55
  %10 = getelementptr inbounds nuw %struct.AVFilterLink, ptr %9, i32 0, i32 0
  %11 = load ptr, ptr %10, align 8, !tbaa !70
  store ptr %11, ptr %4, align 8, !tbaa !4
  call void @llvm.lifetime.start.p0(i64 8, ptr %5) #9
  %12 = load ptr, ptr %4, align 8, !tbaa !4
  %13 = getelementptr inbounds nuw %struct.AVFilterContext, ptr %12, i32 0, i32 9
  %14 = load ptr, ptr %13, align 8, !tbaa !9
  store ptr %14, ptr %5, align 8, !tbaa !22
  call void @llvm.lifetime.start.p0(i64 8, ptr %6) #9
  %15 = load ptr, ptr %4, align 8, !tbaa !4
  %16 = getelementptr inbounds nuw %struct.AVFilterContext, ptr %15, i32 0, i32 4
  %17 = load ptr, ptr %16, align 8, !tbaa !54
  %18 = getelementptr inbounds ptr, ptr %17, i64 0
  %19 = load ptr, ptr %18, align 8, !tbaa !55
  store ptr %19, ptr %6, align 8, !tbaa !55
  %20 = load ptr, ptr %5, align 8, !tbaa !22
  %21 = getelementptr inbounds nuw %struct.HeadphoneContext, ptr %20, i32 0, i32 18
  %22 = load i32, ptr %21, align 4, !tbaa !52
  %23 = icmp eq i32 %22, 1
  br i1 %23, label %24, label %51

24:                                               ; preds = %1
  call void @llvm.lifetime.start.p0(i64 8, ptr %7) #9
  %25 = load ptr, ptr %4, align 8, !tbaa !4
  %26 = getelementptr inbounds nuw %struct.AVFilterContext, ptr %25, i32 0, i32 4
  %27 = load ptr, ptr %26, align 8, !tbaa !54
  %28 = getelementptr inbounds ptr, ptr %27, i64 1
  %29 = load ptr, ptr %28, align 8, !tbaa !55
  store ptr %29, ptr %7, align 8, !tbaa !55
  %30 = load ptr, ptr %7, align 8, !tbaa !55
  %31 = getelementptr inbounds nuw %struct.AVFilterLink, ptr %30, i32 0, i32 12
  %32 = getelementptr inbounds nuw %struct.AVChannelLayout, ptr %31, i32 0, i32 1
  %33 = load i32, ptr %32, align 4, !tbaa !76
  %34 = load ptr, ptr %6, align 8, !tbaa !55
  %35 = getelementptr inbounds nuw %struct.AVFilterLink, ptr %34, i32 0, i32 12
  %36 = getelementptr inbounds nuw %struct.AVChannelLayout, ptr %35, i32 0, i32 1
  %37 = load i32, ptr %36, align 4, !tbaa !76
  %38 = mul nsw i32 %37, 2
  %39 = icmp slt i32 %33, %38
  br i1 %39, label %40, label %47

40:                                               ; preds = %24
  %41 = load ptr, ptr %4, align 8, !tbaa !4
  %42 = load ptr, ptr %6, align 8, !tbaa !55
  %43 = getelementptr inbounds nuw %struct.AVFilterLink, ptr %42, i32 0, i32 12
  %44 = getelementptr inbounds nuw %struct.AVChannelLayout, ptr %43, i32 0, i32 1
  %45 = load i32, ptr %44, align 4, !tbaa !76
  %46 = mul nsw i32 %45, 2
  call void (ptr, i32, ptr, ...) @av_log(ptr noundef %41, i32 noundef 16, ptr noundef @.str.3, i32 noundef %46)
  store i32 -22, ptr %2, align 4
  store i32 1, ptr %8, align 4
  br label %48

47:                                               ; preds = %24
  store i32 0, ptr %8, align 4
  br label %48

48:                                               ; preds = %47, %40
  call void @llvm.lifetime.end.p0(i64 8, ptr %7) #9
  %49 = load i32, ptr %8, align 4
  switch i32 %49, label %73 [
    i32 0, label %50
  ]

50:                                               ; preds = %48
  br label %51

51:                                               ; preds = %50, %1
  %52 = load ptr, ptr %5, align 8, !tbaa !22
  %53 = getelementptr inbounds nuw %struct.HeadphoneContext, ptr %52, i32 0, i32 10
  %54 = load float, ptr %53, align 8, !tbaa !77
  %55 = load ptr, ptr %6, align 8, !tbaa !55
  %56 = getelementptr inbounds nuw %struct.AVFilterLink, ptr %55, i32 0, i32 12
  %57 = getelementptr inbounds nuw %struct.AVChannelLayout, ptr %56, i32 0, i32 1
  %58 = load i32, ptr %57, align 4, !tbaa !76
  %59 = mul nsw i32 3, %58
  %60 = sitofp i32 %59 to float
  %61 = fsub nsz float %54, %60
  %62 = load ptr, ptr %5, align 8, !tbaa !22
  %63 = getelementptr inbounds nuw %struct.HeadphoneContext, ptr %62, i32 0, i32 11
  %64 = load float, ptr %63, align 4, !tbaa !78
  %65 = fadd nsz float %61, %64
  %66 = fdiv nsz float %65, 2.000000e+01
  %67 = fpext nsz float %66 to double
  %68 = fmul nsz double %67, 0x40026BB1BBB55516
  %69 = fptrunc nsz double %68 to float
  %70 = call nsz float @llvm.exp.f32(float %69)
  %71 = load ptr, ptr %5, align 8, !tbaa !22
  %72 = getelementptr inbounds nuw %struct.HeadphoneContext, ptr %71, i32 0, i32 12
  store float %70, ptr %72, align 8, !tbaa !79
  store i32 0, ptr %2, align 4
  store i32 1, ptr %8, align 4
  br label %73

73:                                               ; preds = %51, %48
  call void @llvm.lifetime.end.p0(i64 8, ptr %6) #9
  call void @llvm.lifetime.end.p0(i64 8, ptr %5) #9
  call void @llvm.lifetime.end.p0(i64 8, ptr %4) #9
  %74 = load i32, ptr %2, align 4
  ret i32 %74
}