; Function Attrs: nounwind uwtable
define internal range(i32 -22, 1) i32 @config_output(ptr noundef readonly captures(none) %0) #1 {
  %2 = load ptr, ptr %0, align 8, !tbaa !98
  %3 = getelementptr inbounds nuw i8, ptr %2, i64 72
  %4 = load ptr, ptr %3, align 8, !tbaa !4
  %5 = getelementptr inbounds nuw i8, ptr %2, i64 32
  %6 = load ptr, ptr %5, align 8, !tbaa !47
  %7 = load ptr, ptr %6, align 8, !tbaa !48
  %8 = getelementptr inbounds nuw i8, ptr %4, i64 100
  %9 = load i32, ptr %8, align 4, !tbaa !28
  %10 = icmp eq i32 %9, 1
  br i1 %10, label %11, label %..critedge_crit_edge

..critedge_crit_edge:                             ; preds = %1
  %.phi.trans.insert = getelementptr inbounds nuw i8, ptr %7, i64 76
  %.pre = load i32, ptr %.phi.trans.insert, align 4, !tbaa !68
  br label %.critedge

11:                                               ; preds = %1
  %12 = getelementptr inbounds nuw i8, ptr %6, i64 8
  %13 = load ptr, ptr %12, align 8, !tbaa !48
  %14 = getelementptr inbounds nuw i8, ptr %13, i64 76
  %15 = load i32, ptr %14, align 4, !tbaa !68
  %16 = getelementptr inbounds nuw i8, ptr %7, i64 76
  %17 = load i32, ptr %16, align 4, !tbaa !68
  %18 = shl nsw i32 %17, 1
  %.not = icmp slt i32 %15, %18
  br i1 %.not, label %19, label %.critedge

19:                                               ; preds = %11
  tail call void (ptr, i32, ptr, ...) @av_log(ptr noundef nonnull %2, i32 noundef 16, ptr noundef nonnull @.str.3, i32 noundef %18) #8
  br label %35

.critedge:                                        ; preds = %..critedge_crit_edge, %11
  %20 = phi i32 [ %.pre, %..critedge_crit_edge ], [ %17, %11 ]
  %21 = getelementptr inbounds nuw i8, ptr %4, i64 48
  %22 = load float, ptr %21, align 8, !tbaa !69
  %23 = mul nsw i32 %20, 3
  %24 = sitofp i32 %23 to float
  %25 = fsub nsz float %22, %24
  %26 = getelementptr inbounds nuw i8, ptr %4, i64 52
  %27 = load float, ptr %26, align 4, !tbaa !116
  %28 = fadd nsz float %27, %25
  %29 = fdiv nsz float %28, 2.000000e+01
  %30 = fpext nsz float %29 to double
  %31 = fmul nsz double %30, 0x40026BB1BBB55516
  %32 = fptrunc nsz double %31 to float
  %33 = tail call nsz float @llvm.exp.f32(float %32)
  %34 = getelementptr inbounds nuw i8, ptr %4, i64 56
  store float %33, ptr %34, align 8, !tbaa !117
  br label %35

35:                                               ; preds = %19, %.critedge
  %.1 = phi i32 [ 0, %.critedge ], [ -22, %19 ]
  ret i32 %.1
}